target datalayout = "e-m:e-p270:32:32-p271:32:32-p272:64:64-i64:64-i128:128-f80:128-n8:16:32:64-S128"
target triple = "x86_64-pc-linux-gnu"

%struct._object = type { %union.anon, ptr }
%union.anon = type { i64 }
%struct.PyBytesObject = type { %struct.PyVarObject, i64, [1 x i8] }
%struct.PyVarObject = type { %struct._object, i64 }
%struct.anon = type { i32, i32 }

@PyExc_OSError = external global ptr, align 8
@.str.1 = private unnamed_addr constant [5 x i8] c"open\00", align 1
@.str.3 = private unnamed_addr constant [4 x i8] c"Osi\00", align 1

; Function Attrs: alwaysinline nounwind uwtable
define internal i32 @_Py_IsImmortal(ptr noundef %0) #6 {
  %2 = alloca ptr, align 8
  store ptr %0, ptr %2, align 8, !tbaa !178
  %3 = load ptr, ptr %2, align 8, !tbaa !178
  %4 = getelementptr inbounds nuw %struct._object, ptr %3, i32 0, i32 0
  %5 = getelementptr inbounds nuw %struct.anon, ptr %4, i32 0, i32 0
  %6 = load i32, ptr %5, align 8, !tbaa !181
  %7 = icmp slt i32 %6, 0
  %8 = zext i1 %7 to i32
  ret i32 %8
}

; Function Attrs: alwaysinline nounwind uwtable
define internal void @Py_DECREF(ptr noundef %0) #6 {
  %2 = alloca ptr, align 8
  store ptr %0, ptr %2, align 8, !tbaa !178
  %3 = load ptr, ptr %2, align 8, !tbaa !178
  %4 = call i32 @_Py_IsImmortal(ptr noundef %3)
  %5 = icmp ne i32 %4, 0
  br i1 %5, label %6, label %7

6:                                                ; preds = %1
  br label %16

7:                                                ; preds = %1
  %8 = load ptr, ptr %2, align 8, !tbaa !178
  %9 = getelementptr inbounds nuw %struct._object, ptr %8, i32 0, i32 0
  %10 = getelementptr inbounds nuw %struct.anon, ptr %9, i32 0, i32 0
  %11 = load i32, ptr %10, align 8, !tbaa !181
  %12 = add i32 %11, -1
  store i32 %12, ptr %10, align 8, !tbaa !181
  %13 = icmp eq i32 %12, 0
  br i1 %13, label %14, label %16

14:                                               ; preds = %7
  %15 = load ptr, ptr %2, align 8, !tbaa !178
  call void @_Py_Dealloc(ptr noundef %15)
  br label %16

16:                                               ; preds = %6, %14, %7
  ret void
}

; Function Attrs: inlinehint nounwind uwtable
define internal ptr @PyBytes_AS_STRING(ptr noundef %0) #7 {
  %2 = alloca ptr, align 8
  store ptr %0, ptr %2, align 8, !tbaa !178
  %3 = load ptr, ptr %2, align 8, !tbaa !178
  %4 = getelementptr inbounds nuw %struct.PyBytesObject, ptr %3, i32 0, i32 2
  %5 = getelementptr inbounds [1 x i8], ptr %4, i64 0, i64 0
  ret ptr %5
}

; Function Attrs: nounwind uwtable
define dso_local ptr @Py_fopen(ptr noundef %0, ptr noundef %1) #0 {
  %3 = alloca ptr, align 8
  %4 = alloca ptr, align 8
  %5 = alloca ptr, align 8
  %6 = alloca ptr, align 8
  %7 = alloca i32, align 4
  %8 = alloca i32, align 4
  %9 = alloca ptr, align 8
  %10 = alloca i32, align 4
  %11 = alloca ptr, align 8
  %12 = alloca ptr, align 8
  store ptr %0, ptr %4, align 8, !tbaa !178
  store ptr %1, ptr %5, align 8, !tbaa !180
  %13 = load ptr, ptr %4, align 8, !tbaa !178
  %14 = load ptr, ptr %5, align 8, !tbaa !180
  %15 = call i32 (ptr, ptr, ...) @PySys_Audit(ptr noundef @.str.1, ptr noundef @.str.3, ptr noundef %13, ptr noundef %14, i32 noundef 0)
  %16 = icmp slt i32 %15, 0
  br i1 %16, label %17, label %18

17:                                               ; preds = %2
  store ptr null, ptr %3, align 8
  br label %73

18:                                               ; preds = %2
  call void @llvm.lifetime.start.p0(i64 8, ptr %6) #10
  call void @llvm.lifetime.start.p0(i64 4, ptr %7) #10
  store i32 0, ptr %7, align 4, !tbaa !4
  call void @llvm.lifetime.start.p0(i64 4, ptr %8) #10
  call void @llvm.lifetime.start.p0(i64 8, ptr %9) #10
  %19 = load ptr, ptr %4, align 8, !tbaa !178
  %20 = call i32 @PyUnicode_FSConverter(ptr noundef %19, ptr noundef %9)
  %21 = icmp ne i32 %20, 0
  br i1 %21, label %23, label %22

22:                                               ; preds = %18
  store ptr null, ptr %3, align 8
  store i32 1, ptr %10, align 4
  br label %72

23:                                               ; preds = %18
  call void @llvm.lifetime.start.p0(i64 8, ptr %11) #10
  %24 = load ptr, ptr %9, align 8, !tbaa !178
  %25 = call ptr @PyBytes_AS_STRING(ptr noundef %24)
  store ptr %25, ptr %11, align 8, !tbaa !180
  br label %26

26:                                               ; preds = %43, %23
  call void @llvm.lifetime.start.p0(i64 8, ptr %12) #10
  %27 = call ptr @PyEval_SaveThread()
  store ptr %27, ptr %12, align 8, !tbaa !8
  %28 = load ptr, ptr %11, align 8, !tbaa !180
  %29 = load ptr, ptr %5, align 8, !tbaa !180
  %30 = call noalias ptr @fopen64(ptr noundef %28, ptr noundef %29)
  store ptr %30, ptr %6, align 8, !tbaa !196
  %31 = load ptr, ptr %12, align 8, !tbaa !8
  call void @PyEval_RestoreThread(ptr noundef %31)
  call void @llvm.lifetime.end.p0(i64 8, ptr %12) #10
  br label %32

32:                                               ; preds = %26
  %33 = load ptr, ptr %6, align 8, !tbaa !196
  %34 = icmp eq ptr %33, null
  br i1 %34, label %35, label %43

35:                                               ; preds = %32
  %36 = call ptr @__errno_location() #12
  %37 = load i32, ptr %36, align 4, !tbaa !4
  %38 = icmp eq i32 %37, 4
  br i1 %38, label %39, label %43

39:                                               ; preds = %35
  %40 = call i32 @PyErr_CheckSignals()
  store i32 %40, ptr %7, align 4, !tbaa !4
  %41 = icmp ne i32 %40, 0
  %42 = xor i1 %41, true
  br label %43

43:                                               ; preds = %39, %35, %32
  %44 = phi i1 [ false, %35 ], [ false, %32 ], [ %42, %39 ]
  br i1 %44, label %26, label %45, !llvm.loop !197

45:                                               ; preds = %43
  %46 = call ptr @__errno_location() #12
  %47 = load i32, ptr %46, align 4, !tbaa !4
  store i32 %47, ptr %8, align 4, !tbaa !4
  %48 = load ptr, ptr %9, align 8, !tbaa !178
  call void @Py_DECREF(ptr noundef %48)
  %49 = load i32, ptr %7, align 4, !tbaa !4
  %50 = icmp ne i32 %49, 0
  br i1 %50, label %51, label %52

51:                                               ; preds = %45
  store ptr null, ptr %3, align 8
  store i32 1, ptr %10, align 4
  br label %71

52:                                               ; preds = %45
  %53 = load ptr, ptr %6, align 8, !tbaa !196
  %54 = icmp eq ptr %53, null
  br i1 %54, label %55, label %61

55:                                               ; preds = %52
  %56 = load i32, ptr %8, align 4, !tbaa !4
  %57 = call ptr @__errno_location() #12
  store i32 %56, ptr %57, align 4, !tbaa !4
  %58 = load ptr, ptr @PyExc_OSError, align 8, !tbaa !178
  %59 = load ptr, ptr %4, align 8, !tbaa !178
  %60 = call ptr @PyErr_SetFromErrnoWithFilenameObject(ptr noundef %58, ptr noundef %59)
  store ptr null, ptr %3, align 8
  store i32 1, ptr %10, align 4
  br label %71

61:                                               ; preds = %52
  %62 = load ptr, ptr %6, align 8, !tbaa !196
  %63 = call i32 @fileno(ptr noundef %62) #10
  %64 = call i32 @set_inheritable(i32 noundef %63, i32 noundef 0, i32 noundef 1, ptr noundef null)
  %65 = icmp slt i32 %64, 0
  br i1 %65, label %66, label %69

66:                                               ; preds = %61
  %67 = load ptr, ptr %6, align 8, !tbaa !196
  %68 = call i32 @fclose(ptr noundef %67)
  store ptr null, ptr %3, align 8
  store i32 1, ptr %10, align 4
  br label %71

69:                                               ; preds = %61
  %70 = load ptr, ptr %6, align 8, !tbaa !196
  store ptr %70, ptr %3, align 8
  store i32 1, ptr %10, align 4
  br label %71

71:                                               ; preds = %69, %66, %55, %51
  call void @llvm.lifetime.end.p0(i64 8, ptr %11) #10
  br label %72

72:                                               ; preds = %71, %22
  call void @llvm.lifetime.end.p0(i64 8, ptr %9) #10
  call void @llvm.lifetime.end.p0(i64 4, ptr %8) #10
  call void @llvm.lifetime.end.p0(i64 4, ptr %7) #10
  call void @llvm.lifetime.end.p0(i64 8, ptr %6) #10
  br label %73

73:                                               ; preds = %72, %17
  %74 = load ptr, ptr %3, align 8
  ret ptr %74
}