; Function Attrs: nounwind uwtable
define dso_local noalias noundef ptr @Py_fopen(ptr noundef %0, ptr noundef %1) local_unnamed_addr #0 {
  %3 = alloca ptr, align 8
  %4 = tail call i32 (ptr, ptr, ...) @PySys_Audit(ptr noundef nonnull @.str.1, ptr noundef nonnull @.str.3, ptr noundef %0, ptr noundef %1, i32 noundef 0) #17
  %5 = icmp slt i32 %4, 0
  br i1 %5, label %38, label %6

6:                                                ; preds = %2
  call void @llvm.lifetime.start.p0(i64 8, ptr nonnull %3) #17
  %7 = call i32 @PyUnicode_FSConverter(ptr noundef %0, ptr noundef nonnull %3) #17
  %.not = icmp eq i32 %7, 0
  br i1 %.not, label %37, label %8

8:                                                ; preds = %6
  %9 = load ptr, ptr %3, align 8, !tbaa !188
  %10 = getelementptr inbounds nuw i8, ptr %9, i64 32
  br label %11

11:                                               ; preds = %18, %8
  %12 = call ptr @PyEval_SaveThread() #17
  %13 = call noalias ptr @fopen64(ptr noundef nonnull %10, ptr noundef %1)
  call void @PyEval_RestoreThread(ptr noundef %12) #17
  %14 = icmp eq ptr %13, null
  %15 = tail call ptr @__errno_location() #19
  br i1 %14, label %16, label %.critedge

16:                                               ; preds = %11
  %17 = load i32, ptr %15, align 4, !tbaa !180
  %.not25.not = icmp eq i32 %17, 4
  br i1 %.not25.not, label %18, label %.critedge

18:                                               ; preds = %16
  %19 = call i32 @PyErr_CheckSignals() #17
  %.not17 = icmp eq i32 %19, 0
  br i1 %.not17, label %11, label %.critedge, !llvm.loop !190

.critedge:                                        ; preds = %16, %18, %11
  %.115 = phi i1 [ true, %16 ], [ false, %18 ], [ true, %11 ]
  %20 = load i32, ptr %15, align 4, !tbaa !180
  %21 = load ptr, ptr %3, align 8, !tbaa !188
  %22 = load i32, ptr %21, align 8, !tbaa !175
  %.not.i = icmp sgt i32 %22, -1
  br i1 %.not.i, label %23, label %Py_DECREF.exit

23:                                               ; preds = %.critedge
  %24 = add nsw i32 %22, -1
  store i32 %24, ptr %21, align 8, !tbaa !175
  %25 = icmp eq i32 %24, 0
  br i1 %25, label %26, label %Py_DECREF.exit

26:                                               ; preds = %23
  call void @_Py_Dealloc(ptr noundef nonnull %21) #17
  br label %Py_DECREF.exit

Py_DECREF.exit:                                   ; preds = %.critedge, %23, %26
  br i1 %.115, label %27, label %37

27:                                               ; preds = %Py_DECREF.exit
  br i1 %14, label %28, label %31

28:                                               ; preds = %27
  store i32 %20, ptr %15, align 4, !tbaa !180
  %29 = load ptr, ptr @PyExc_OSError, align 8, !tbaa !188
  %30 = call ptr @PyErr_SetFromErrnoWithFilenameObject(ptr noundef %29, ptr noundef %0) #17
  br label %37

31:                                               ; preds = %27
  %32 = call i32 @fileno(ptr noundef nonnull %13) #17
  %33 = call fastcc i32 @set_inheritable(i32 noundef %32, i32 noundef 0, i32 noundef 1, ptr noundef null)
  %34 = icmp slt i32 %33, 0
  br i1 %34, label %35, label %37

35:                                               ; preds = %31
  %36 = call i32 @fclose(ptr noundef nonnull %13)
  br label %37

37:                                               ; preds = %28, %35, %Py_DECREF.exit, %31, %6
  %.1 = phi ptr [ null, %6 ], [ null, %28 ], [ null, %35 ], [ null, %Py_DECREF.exit ], [ %13, %31 ]
  call void @llvm.lifetime.end.p0(i64 8, ptr nonnull %3) #17
  br label %38

38:                                               ; preds = %2, %37
  %.0 = phi ptr [ %.1, %37 ], [ null, %2 ]
  ret ptr %.0
}